Certificate:
    Data:
        Version: 3 (0x2)
        Serial Number:
            3a:7d:37:66:c9:08:92:63:75:dc:ea:bc:2e:73:3e:97:19:d8:da:95
        Signature Algorithm: sha256WithRSAEncryption
        Issuer: CN = localhost
        Validity
            Not Before: Dec 22 21:23:13 2020 GMT
            Not After : Dec 20 21:23:13 2030 GMT
        Subject: CN = localhost
        Subject Public Key Info:
            Public Key Algorithm: rsaEncryption
                RSA Public-Key: (2048 bit)
                Modulus:
                    00:c1:66:eb:84:2b:b0:7d:99:b5:b0:16:7c:b7:ba:
                    80:04:f8:fa:76:e8:f7:c2:3c:41:21:3a:1d:10:a4:
                    0e:8a:3c:c4:2c:d3:a0:ef:e9:3c:7d:e1:37:29:34:
                    87:92:9d:2c:69:dd:d1:80:dd:65:6e:3b:27:af:4a:
                    ca:c6:87:2a:fa:0d:a7:5a:12:5c:e5:5e:40:77:f9:
                    fa:63:fe:2d:3a:50:c8:86:e6:2a:b2:3b:fc:3e:2b:
                    24:b3:e6:ae:61:5b:2c:2c:f4:f3:59:96:40:b8:9d:
                    6e:f1:57:a9:7e:28:d3:2a:4b:71:db:16:88:29:6e:
                    b7:8b:0e:6a:c2:55:5b:c4:4c:4d:ed:e4:4a:be:36:
                    d9:8f:9a:cf:75:79:12:00:01:7f:d6:d3:63:20:e4:
                    78:b9:6d:ef:ad:23:ec:ef:4d:20:70:6c:4d:bc:24:
                    7c:59:c2:ab:cc:77:b4:99:49:ac:7b:74:78:97:84:
                    df:b9:70:6f:e3:c9:71:62:54:ce:63:c3:62:cd:a8:
                    3f:ae:99:e8:c8:76:b3:7a:88:66:2e:5e:c9:b6:9e:
                    57:f8:e7:ea:7c:98:b1:03:6e:36:aa:89:66:8f:38:
                    d5:09:e7:f7:b8:32:84:13:32:ae:79:ef:18:d5:e5:
                    6a:cd:89:63:26:e0:c9:cf:ad:db:e5:7d:f1:61:af:
                    81:a9
                Exponent: 65537 (0x10001)
        X509v3 extensions:
            X509v3 Subject Key Identifier: 
                09:9A:C9:F9:7C:C8:5D:EC:22:04:E1:B0:EB:84:05:30:AC:54:E2:79
            X509v3 Authority Key Identifier: 
                keyid:09:9A:C9:F9:7C:C8:5D:EC:22:04:E1:B0:EB:84:05:30:AC:54:E2:79

            X509v3 Basic Constraints: critical
                CA:TRUE
    Signature Algorithm: sha256WithRSAEncryption
         11:75:a1:9a:cc:48:86:3b:12:c6:c6:b5:fa:64:d3:d9:9f:d1:
         3d:31:59:36:af:2c:42:4c:cb:4b:3e:d1:28:ee:9f:d8:f7:19:
         90:ef:03:82:4c:8c:e6:d5:ef:44:2b:3f:1d:d7:dd:f8:1a:32:
         71:c1:b5:09:15:54:0d:a5:f9:75:2b:53:77:9a:63:67:d8:a3:
         52:c4:e2:5b:70:0f:e7:3d:73:b6:8a:b6:98:79:9f:42:ee:ee:
         f7:21:5c:1a:17:ef:d7:22:60:73:97:0d:78:1b:ef:f2:9a:9b:
         f4:17:3b:0b:2a:c2:9a:76:1c:fe:d5:ec:7f:9e:ef:f5:f5:50:
         f1:c6:0a:f5:ca:97:19:d4:fe:1e:9a:6b:9e:c1:9c:aa:5b:77:
         83:f3:d3:d6:de:1a:4d:f8:2b:df:4a:ba:49:26:b2:15:a5:5d:
         e8:0a:7c:85:7e:41:4d:64:3d:a1:65:8f:41:fb:4d:df:7b:eb:
         3d:16:f7:4a:05:b9:9b:81:6e:d4:e3:ca:be:95:08:6b:3c:2a:
         c9:4d:8c:68:ce:37:5b:4f:ab:e0:81:7b:9c:51:95:48:f2:41:
         4d:b0:97:14:72:c6:02:31:4b:ec:80:a3:9c:e0:09:98:9a:dc:
         d4:b3:f6:c9:2a:04:5e:8c:ec:0e:c0:40:96:24:e4:70:15:4e:
         c7:44:19:31
-----BEGIN CERTIFICATE-----
MIIDCTCCAfGgAwIBAgIUOn03ZskIkmN13Oq8LnM+lxnY2pUwDQYJKoZIhvcNAQEL
BQAwFDESMBAGA1UEAwwJbG9jYWxob3N0MB4XDTIwMTIyMjIxMjMxM1oXDTMwMTIy
MDIxMjMxM1owFDESMBAGA1UEAwwJbG9jYWxob3N0MIIBIjANBgkqhkiG9w0BAQEF
AAOCAQ8AMIIBCgKCAQEAwWbrhCuwfZm1sBZ8t7qABPj6duj3wjxBITodEKQOijzE
LNOg7+k8feE3KTSHkp0sad3RgN1lbjsnr0rKxocq+g2nWhJc5V5Ad/n6Y/4tOlDI
huYqsjv8Pisks+auYVssLPTzWZZAuJ1u8VepfijTKktx2xaIKW63iw5qwlVbxExN
7eRKvjbZj5rPdXkSAAF/1tNjIOR4uW3vrSPs700gcGxNvCR8WcKrzHe0mUmse3R4
l4TfuXBv48lxYlTOY8Nizag/rpnoyHazeohmLl7Jtp5X+OfqfJixA242qolmjzjV
Cef3uDKEEzKuee8Y1eVqzYljJuDJz63b5X3xYa+BqQIDAQABo1MwUTAdBgNVHQ4E
FgQUCZrJ+XzIXewiBOGw64QFMKxU4nkwHwYDVR0jBBgwFoAUCZrJ+XzIXewiBOGw
64QFMKxU4nkwDwYDVR0TAQH/BAUwAwEB/zANBgkqhkiG9w0BAQsFAAOCAQEAEXWh
msxIhjsSxsa1+mTT2Z/RPTFZNq8sQkzLSz7RKO6f2PcZkO8DgkyM5tXvRCs/Hdfd
+BoyccG1CRVUDaX5dStTd5pjZ9ijUsTiW3AP5z1ztoq2mHmfQu7u9yFcGhfv1yJg
c5cNeBvv8pqb9Bc7CyrCmnYc/tXsf57v9fVQ8cYK9cqXGdT+HpprnsGcqlt3g/PT
1t4aTfgr30q6SSayFaVd6Ap8hX5BTWQ9oWWPQftN33vrPRb3SgW5m4Fu1OPKvpUI
azwqyU2MaM43W0+r4IF7nFGVSPJBTbCXFHLGAjFL7ICjnOAJmJrc1LP2ySoEXozs
DsBAliTkcBVOx0QZMQ==
-----END CERTIFICATE-----
